target datalayout = "e-m:e-p270:32:32-p271:32:32-p272:64:64-i64:64-i128:128-f80:128-n8:16:32:64-S128"
target triple = "x86_64-pc-linux-gnu"

%struct._value_string_ext = type { ptr, i32, i32, ptr, ptr }
%struct.expert_field = type { i32, i32 }

@ei_wsp_oversized_uintvar = internal global %struct.expert_field zeroinitializer, align 4
@ei_wsp_header_invalid_value = internal global %struct.expert_field zeroinitializer, align 4
@hf_hdr_openwave_default_int = internal global i32 0, align 4
@hf_hdr_openwave_default_string = internal global i32 0, align 4
@hf_hdr_openwave_default_val_len = internal global i32 0, align 4
@hf_hdr_openwave_name_value = internal global i32 0, align 4
@vals_openwave_field_names_ext = internal global %struct._value_string_ext { ptr @_try_val_to_str_ext_init, i32 0, i32 30, ptr @vals_openwave_field_names, ptr @.str.1258 }, align 8
@ett_openwave_default = internal global i32 0, align 4
@.str.811 = private unnamed_addr constant [7 x i8] c"%s: %s\00", align 1
@.str.1035 = private unnamed_addr constant [34 x i8] c"<Unknown WSP header field 0x%02X>\00", align 1
@.str.1093 = private unnamed_addr constant [40 x i8] c"%s: (Undecoded well-known value 0x%02x)\00", align 1
@.str.1094 = private unnamed_addr constant [60 x i8] c"%s: (Undecoded value in general form with length indicator)\00", align 1
@.str.1178 = private unnamed_addr constant [8 x i8] c"Default\00", align 1

; Function Attrs: null_pointer_is_valid sspstrong uwtable
define internal i32 @wkh_openwave_default(ptr noundef %0, ptr noundef %1, i32 noundef %2, ptr noundef %3) #1 {
  %5 = alloca ptr, align 8
  %6 = alloca ptr, align 8
  %7 = alloca i32, align 4
  %8 = alloca ptr, align 8
  %9 = alloca i8, align 1
  %10 = alloca ptr, align 8
  %11 = alloca ptr, align 8
  %12 = alloca i32, align 4
  %13 = alloca i8, align 1
  %14 = alloca i32, align 4
  %15 = alloca i32, align 4
  %16 = alloca i32, align 4
  %17 = alloca ptr, align 8
  %18 = alloca i8, align 1
  store ptr %0, ptr %5, align 8
  store ptr %1, ptr %6, align 8
  store i32 %2, ptr %7, align 4
  store ptr %3, ptr %8, align 8
  call void @llvm.lifetime.start.p0(i64 1, ptr %9) #8
  store i8 0, ptr %9, align 1
  call void @llvm.lifetime.start.p0(i64 8, ptr %10) #8
  call void @llvm.lifetime.start.p0(i64 8, ptr %11) #8
  call void @llvm.lifetime.start.p0(i64 4, ptr %12) #8
  %19 = load i32, ptr %7, align 4
  %20 = add i32 %19, 1
  store i32 %20, ptr %12, align 4
  call void @llvm.lifetime.start.p0(i64 1, ptr %13) #8
  %21 = load ptr, ptr %6, align 8
  %22 = load i32, ptr %12, align 4
  %23 = call zeroext i8 @tvb_get_uint8(ptr noundef %21, i32 noundef %22)
  store i8 %23, ptr %13, align 1
  call void @llvm.lifetime.start.p0(i64 4, ptr %14) #8
  %24 = load i32, ptr %12, align 4
  store i32 %24, ptr %14, align 4
  call void @llvm.lifetime.start.p0(i64 4, ptr %15) #8
  call void @llvm.lifetime.start.p0(i64 4, ptr %16) #8
  call void @llvm.lifetime.start.p0(i64 8, ptr %17) #8
  store ptr null, ptr %17, align 8
  call void @llvm.lifetime.start.p0(i64 1, ptr %18) #8
  %25 = load ptr, ptr %6, align 8
  %26 = load i32, ptr %7, align 4
  %27 = call zeroext i8 @tvb_get_uint8(ptr noundef %25, i32 noundef %26)
  %28 = zext i8 %27 to i32
  %29 = and i32 %28, 127
  %30 = trunc i32 %29 to i8
  store i8 %30, ptr %18, align 1
  store i8 1, ptr %9, align 1
  %31 = load ptr, ptr %5, align 8
  %32 = load ptr, ptr %6, align 8
  %33 = load i32, ptr %7, align 4
  %34 = load i32, ptr %14, align 4
  %35 = load i32, ptr %7, align 4
  %36 = sub i32 %34, %35
  %37 = load i32, ptr @ett_openwave_default, align 4
  %38 = call ptr @proto_tree_add_subtree(ptr noundef %31, ptr noundef %32, i32 noundef %33, i32 noundef %36, i32 noundef %37, ptr noundef %11, ptr noundef @.str.1178)
  store ptr %38, ptr %10, align 8
  %39 = load ptr, ptr %10, align 8
  %40 = load i32, ptr @hf_hdr_openwave_name_value, align 4
  %41 = load ptr, ptr %6, align 8
  %42 = load i32, ptr %7, align 4
  %43 = call ptr @proto_tree_add_item(ptr noundef %39, i32 noundef %40, ptr noundef %41, i32 noundef %42, i32 noundef 1, i32 noundef 0)
  %44 = load i8, ptr %13, align 1
  %45 = zext i8 %44 to i32
  %46 = and i32 %45, 128
  %47 = icmp ne i32 %46, 0
  br i1 %47, label %48, label %68

48:                                               ; preds = %4
  %49 = load i32, ptr %14, align 4
  %50 = add i32 %49, 1
  store i32 %50, ptr %14, align 4
  %51 = load ptr, ptr %5, align 8
  %52 = load i32, ptr @hf_hdr_openwave_default_int, align 4
  %53 = load ptr, ptr %6, align 8
  %54 = load i32, ptr %7, align 4
  %55 = load i32, ptr %14, align 4
  %56 = load i32, ptr %7, align 4
  %57 = sub i32 %55, %56
  %58 = load i8, ptr %13, align 1
  %59 = zext i8 %58 to i32
  %60 = and i32 %59, 127
  %61 = load i8, ptr %18, align 1
  %62 = zext i8 %61 to i32
  %63 = call ptr @val_to_str_ext(i32 noundef %62, ptr noundef @vals_openwave_field_names_ext, ptr noundef @.str.1035)
  %64 = load i8, ptr %13, align 1
  %65 = zext i8 %64 to i32
  %66 = and i32 %65, 127
  %67 = call ptr (ptr, i32, ptr, i32, i32, i32, ptr, ...) @proto_tree_add_uint_format(ptr noundef %51, i32 noundef %52, ptr noundef %53, i32 noundef %54, i32 noundef %57, i32 noundef %60, ptr noundef @.str.1093, ptr noundef %63, i32 noundef %66)
  br label %132

68:                                               ; preds = %4
  %69 = load i8, ptr %13, align 1
  %70 = zext i8 %69 to i32
  %71 = icmp eq i32 %70, 0
  br i1 %71, label %76, label %72

72:                                               ; preds = %68
  %73 = load i8, ptr %13, align 1
  %74 = zext i8 %73 to i32
  %75 = icmp sge i32 %74, 32
  br i1 %75, label %76, label %96

76:                                               ; preds = %72, %68
  %77 = call ptr @wmem_packet_scope()
  %78 = load ptr, ptr %6, align 8
  %79 = load i32, ptr %12, align 4
  %80 = call ptr @tvb_get_stringz_enc(ptr noundef %77, ptr noundef %78, i32 noundef %79, ptr noundef %15, i32 noundef 0)
  store ptr %80, ptr %17, align 8
  %81 = load i32, ptr %12, align 4
  %82 = load i32, ptr %15, align 4
  %83 = add i32 %81, %82
  store i32 %83, ptr %14, align 4
  %84 = load ptr, ptr %5, align 8
  %85 = load i32, ptr @hf_hdr_openwave_default_string, align 4
  %86 = load ptr, ptr %6, align 8
  %87 = load i32, ptr %7, align 4
  %88 = load i32, ptr %14, align 4
  %89 = load i32, ptr %7, align 4
  %90 = sub i32 %88, %89
  %91 = load i8, ptr %18, align 1
  %92 = zext i8 %91 to i32
  %93 = call ptr @val_to_str_ext(i32 noundef %92, ptr noundef @vals_openwave_field_names_ext, ptr noundef @.str.1035)
  %94 = load ptr, ptr %17, align 8
  %95 = call ptr (ptr, i32, ptr, i32, i32, ptr, ptr, ...) @proto_tree_add_string_format(ptr noundef %84, i32 noundef %85, ptr noundef %86, i32 noundef %87, i32 noundef %90, ptr noundef @.str.811, ptr noundef %93, ptr noundef %94)
  br label %131

96:                                               ; preds = %72
  %97 = load i8, ptr %13, align 1
  %98 = zext i8 %97 to i32
  %99 = icmp eq i32 %98, 31
  br i1 %99, label %100, label %108

100:                                              ; preds = %96
  %101 = load ptr, ptr %6, align 8
  %102 = load i32, ptr %12, align 4
  %103 = add i32 %102, 1
  %104 = load ptr, ptr %8, align 8
  %105 = call i32 @tvb_get_uintvar(ptr noundef %101, i32 noundef %103, ptr noundef %16, ptr noundef %104, ptr noundef @ei_wsp_oversized_uintvar)
  store i32 %105, ptr %15, align 4
  %106 = load i32, ptr %16, align 4
  %107 = add i32 %106, 1
  store i32 %107, ptr %16, align 4
  br label %113

108:                                              ; preds = %96
  %109 = load ptr, ptr %6, align 8
  %110 = load i32, ptr %14, align 4
  %111 = call zeroext i8 @tvb_get_uint8(ptr noundef %109, i32 noundef %110)
  %112 = zext i8 %111 to i32
  store i32 %112, ptr %15, align 4
  store i32 1, ptr %16, align 4
  br label %113

113:                                              ; preds = %108, %100
  %114 = load i32, ptr %16, align 4
  %115 = load i32, ptr %15, align 4
  %116 = add i32 %114, %115
  %117 = load i32, ptr %14, align 4
  %118 = add i32 %117, %116
  store i32 %118, ptr %14, align 4
  %119 = load ptr, ptr %5, align 8
  %120 = load i32, ptr @hf_hdr_openwave_default_val_len, align 4
  %121 = load ptr, ptr %6, align 8
  %122 = load i32, ptr %7, align 4
  %123 = load i32, ptr %14, align 4
  %124 = load i32, ptr %7, align 4
  %125 = sub i32 %123, %124
  %126 = load i32, ptr %15, align 4
  %127 = load i8, ptr %18, align 1
  %128 = zext i8 %127 to i32
  %129 = call ptr @val_to_str_ext(i32 noundef %128, ptr noundef @vals_openwave_field_names_ext, ptr noundef @.str.1035)
  %130 = call ptr (ptr, i32, ptr, i32, i32, i32, ptr, ...) @proto_tree_add_uint_format(ptr noundef %119, i32 noundef %120, ptr noundef %121, i32 noundef %122, i32 noundef %125, i32 noundef %126, ptr noundef @.str.1094, ptr noundef %129)
  br label %131

131:                                              ; preds = %113, %76
  br label %132

132:                                              ; preds = %131, %48
  %133 = load i8, ptr %9, align 1, !range !6, !noundef !7
  %134 = trunc i8 %133 to i1
  br i1 %134, label %139, label %135

135:                                              ; preds = %132
  %136 = load ptr, ptr %8, align 8
  %137 = load ptr, ptr %11, align 8
  %138 = call ptr @expert_add_info(ptr noundef %136, ptr noundef %137, ptr noundef @ei_wsp_header_invalid_value)
  br label %139

139:                                              ; preds = %135, %132
  %140 = load i32, ptr %14, align 4
  call void @llvm.lifetime.end.p0(i64 1, ptr %18) #8
  call void @llvm.lifetime.end.p0(i64 8, ptr %17) #8
  call void @llvm.lifetime.end.p0(i64 4, ptr %16) #8
  call void @llvm.lifetime.end.p0(i64 4, ptr %15) #8
  call void @llvm.lifetime.end.p0(i64 4, ptr %14) #8
  call void @llvm.lifetime.end.p0(i64 1, ptr %13) #8
  call void @llvm.lifetime.end.p0(i64 4, ptr %12) #8
  call void @llvm.lifetime.end.p0(i64 8, ptr %11) #8
  call void @llvm.lifetime.end.p0(i64 8, ptr %10) #8
  call void @llvm.lifetime.end.p0(i64 1, ptr %9) #8
  ret i32 %140
}