; Function Attrs: null_pointer_is_valid sspstrong uwtable
define internal i32 @wkh_openwave_default(ptr noundef %0, ptr noundef %1, i32 noundef %2, ptr noundef %3) #1 {
  %5 = alloca ptr, align 8
  %6 = alloca i32, align 4
  %7 = alloca i32, align 4
  call void @llvm.lifetime.start.p0(i64 8, ptr nonnull %5) #5
  %8 = add i32 %2, 1
  %9 = tail call zeroext i8 @tvb_get_uint8(ptr noundef %1, i32 noundef %8)
  call void @llvm.lifetime.start.p0(i64 4, ptr nonnull %6) #5
  call void @llvm.lifetime.start.p0(i64 4, ptr nonnull %7) #5
  %10 = tail call zeroext i8 @tvb_get_uint8(ptr noundef %1, i32 noundef %2)
  %11 = and i8 %10, 127
  %12 = load i32, ptr @ett_openwave_default, align 4
  %13 = call ptr @proto_tree_add_subtree(ptr noundef %0, ptr noundef %1, i32 noundef %2, i32 noundef 1, i32 noundef %12, ptr noundef nonnull %5, ptr noundef nonnull @.str.1178)
  %14 = load i32, ptr @hf_hdr_openwave_name_value, align 4
  %15 = call ptr @proto_tree_add_item(ptr noundef %13, i32 noundef %14, ptr noundef %1, i32 noundef %2, i32 noundef 1, i32 noundef 0)
  %.not = icmp sgt i8 %9, -1
  br i1 %.not, label %24, label %16

16:                                               ; preds = %4
  %17 = add i32 %2, 2
  %18 = load i32, ptr @hf_hdr_openwave_default_int, align 4
  %19 = and i8 %9, 127
  %20 = zext nneg i8 %19 to i32
  %21 = zext nneg i8 %11 to i32
  %22 = call ptr @val_to_str_ext(i32 noundef %21, ptr noundef nonnull @vals_openwave_field_names_ext, ptr noundef nonnull @.str.1035)
  %23 = call ptr (ptr, i32, ptr, i32, i32, i32, ptr, ...) @proto_tree_add_uint_format(ptr noundef %0, i32 noundef %18, ptr noundef %1, i32 noundef %2, i32 noundef 2, i32 noundef %20, ptr noundef nonnull @.str.1093, ptr noundef %22, i32 noundef %20)
  br label %54

24:                                               ; preds = %4
  %25 = add nsw i8 %9, -32
  %or.cond = icmp ult i8 %25, -31
  br i1 %or.cond, label %26, label %36

26:                                               ; preds = %24
  %27 = call ptr @wmem_packet_scope()
  %28 = call ptr @tvb_get_stringz_enc(ptr noundef %27, ptr noundef %1, i32 noundef %8, ptr noundef nonnull %6, i32 noundef 0)
  %29 = load i32, ptr %6, align 4
  %30 = add i32 %29, %8
  %31 = load i32, ptr @hf_hdr_openwave_default_string, align 4
  %32 = sub i32 %30, %2
  %33 = zext nneg i8 %11 to i32
  %34 = call ptr @val_to_str_ext(i32 noundef %33, ptr noundef nonnull @vals_openwave_field_names_ext, ptr noundef nonnull @.str.1035)
  %35 = call ptr (ptr, i32, ptr, i32, i32, ptr, ptr, ...) @proto_tree_add_string_format(ptr noundef %0, i32 noundef %31, ptr noundef %1, i32 noundef %2, i32 noundef %32, ptr noundef nonnull @.str.811, ptr noundef %34, ptr noundef %28)
  br label %54

36:                                               ; preds = %24
  %37 = icmp eq i8 %9, 31
  br i1 %37, label %38, label %43

38:                                               ; preds = %36
  %39 = add i32 %2, 2
  %40 = call i32 @tvb_get_uintvar(ptr noundef %1, i32 noundef %39, ptr noundef nonnull %7, ptr noundef %3, ptr noundef nonnull @ei_wsp_oversized_uintvar)
  %41 = load i32, ptr %7, align 4
  %42 = add i32 %41, 1
  br label %46

43:                                               ; preds = %36
  %44 = call zeroext i8 @tvb_get_uint8(ptr noundef %1, i32 noundef %8)
  %45 = zext i8 %44 to i32
  br label %46

46:                                               ; preds = %43, %38
  %.sink = phi i32 [ %40, %38 ], [ %45, %43 ]
  %storemerge = phi i32 [ %42, %38 ], [ 1, %43 ]
  store i32 %storemerge, ptr %7, align 4
  %47 = add i32 %storemerge, %8
  %48 = add i32 %47, %.sink
  %49 = load i32, ptr @hf_hdr_openwave_default_val_len, align 4
  %50 = sub i32 %48, %2
  %51 = zext nneg i8 %11 to i32
  %52 = call ptr @val_to_str_ext(i32 noundef %51, ptr noundef nonnull @vals_openwave_field_names_ext, ptr noundef nonnull @.str.1035)
  %53 = call ptr (ptr, i32, ptr, i32, i32, i32, ptr, ...) @proto_tree_add_uint_format(ptr noundef %0, i32 noundef %49, ptr noundef %1, i32 noundef %2, i32 noundef %50, i32 noundef %.sink, ptr noundef nonnull @.str.1094, ptr noundef %52)
  br label %54

54:                                               ; preds = %16, %46, %26
  %.0 = phi i32 [ %17, %16 ], [ %30, %26 ], [ %48, %46 ]
  call void @llvm.lifetime.end.p0(i64 4, ptr nonnull %7) #5
  call void @llvm.lifetime.end.p0(i64 4, ptr nonnull %6) #5
  call void @llvm.lifetime.end.p0(i64 8, ptr nonnull %5) #5
  ret i32 %.0
}